; Function Attrs: mustprogress nofree norecurse nosync nounwind willreturn memory(read, inaccessiblemem: none) uwtable
define hidden noundef zeroext i1 @_ZN5zxing9BitMatrix17getRowLastIsWhiteEi(ptr nocapture noundef nonnull readonly align 8 dereferenceable(346) %0, i32 noundef %1) local_unnamed_addr #3 align 2 {
  %3 = getelementptr inbounds i8, ptr %0, i64 12
  %4 = load i32, ptr %3, align 4
  %5 = add nsw i32 %4, -1
  %6 = mul nsw i32 %4, %1
  %7 = add nsw i32 %5, %6
  %8 = getelementptr inbounds i8, ptr %0, i64 312
  %9 = load ptr, ptr %8, align 8
  %10 = getelementptr inbounds i8, ptr %9, i64 16
  %11 = sext i32 %7 to i64
  %12 = load ptr, ptr %10, align 8
  %13 = getelementptr inbounds i8, ptr %12, i64 %11
  %14 = load i8, ptr %13, align 1
  %.not = icmp eq i8 %14, 0
  ret i1 %.not
}